; Function Attrs: mustprogress uwtable
define hidden noundef nonnull align 8 dereferenceable(12) ptr @_ZN5zxing6qrcode8DataMask12forReferenceEiRNS_12ErrorHandlerE(i32 noundef %0, ptr noundef nonnull align 8 dereferenceable(48) %1) local_unnamed_addr #3 align 2 personality ptr @__gxx_personality_v0 {
  %3 = alloca %"class.zxing::IllegalArgumentErrorHandler", align 8
  %or.cond = icmp ugt i32 %0, 7
  br i1 %or.cond, label %4, label %25

4:                                                ; preds = %2
  call void @llvm.lifetime.start.p0(i64 48, ptr nonnull %3) #16
  call void @_ZN5zxing12ErrorHandlerC2EPKc(ptr noundef nonnull align 8 dereferenceable(48) %3, ptr noundef nonnull @.str)
  store ptr getelementptr inbounds nuw inrange(-16, 64) (i8, ptr @_ZTVN5zxing27IllegalArgumentErrorHandlerE, i64 16), ptr %3, align 8, !tbaa !8
  %5 = getelementptr inbounds nuw i8, ptr %3, i64 8
  store i32 4, ptr %5, align 8, !tbaa !10
  %6 = invoke noundef nonnull align 8 dereferenceable(48) ptr @_ZN5zxing12ErrorHandleraSERKS0_(ptr noundef nonnull align 8 dereferenceable(48) %1, ptr noundef nonnull align 8 dereferenceable(48) %3)
          to label %7 unwind label %16

7:                                                ; preds = %4
  store ptr getelementptr inbounds nuw inrange(-16, 64) (i8, ptr @_ZTVN5zxing12ErrorHandlerE, i64 16), ptr %3, align 8, !tbaa !8
  %8 = getelementptr inbounds nuw i8, ptr %3, i64 16
  %9 = load ptr, ptr %8, align 8, !tbaa !17
  %10 = getelementptr inbounds nuw i8, ptr %3, i64 32
  %11 = icmp eq ptr %9, %10
  br i1 %11, label %_ZNKSt7__cxx1112basic_stringIcSt11char_traitsIcESaIcEE11_M_is_localEv.exit.thread.i.i.i, label %_ZNKSt7__cxx1112basic_stringIcSt11char_traitsIcESaIcEE11_M_is_localEv.exit.i.i.i

_ZNKSt7__cxx1112basic_stringIcSt11char_traitsIcESaIcEE11_M_is_localEv.exit.thread.i.i.i: ; preds = %7
  %12 = getelementptr inbounds nuw i8, ptr %3, i64 24
  %13 = load i64, ptr %12, align 8, !tbaa !18
  %14 = icmp ult i64 %13, 16
  call void @llvm.assume(i1 %14)
  br label %_ZN5zxing12ErrorHandlerD2Ev.exit

_ZNKSt7__cxx1112basic_stringIcSt11char_traitsIcESaIcEE11_M_is_localEv.exit.i.i.i: ; preds = %7
  call void @_ZdlPv(ptr noundef %9) #17
  br label %_ZN5zxing12ErrorHandlerD2Ev.exit

_ZN5zxing12ErrorHandlerD2Ev.exit:                 ; preds = %_ZNKSt7__cxx1112basic_stringIcSt11char_traitsIcESaIcEE11_M_is_localEv.exit.thread.i.i.i, %_ZNKSt7__cxx1112basic_stringIcSt11char_traitsIcESaIcEE11_M_is_localEv.exit.i.i.i
  call void @llvm.lifetime.end.p0(i64 48, ptr nonnull %3) #16
  %15 = load ptr, ptr @_ZN5zxing6qrcode8DataMask10DATA_MASKSE, align 8, !tbaa !19
  br label %29

16:                                               ; preds = %4
  %17 = landingpad { ptr, i32 }
          cleanup
  store ptr getelementptr inbounds nuw inrange(-16, 64) (i8, ptr @_ZTVN5zxing12ErrorHandlerE, i64 16), ptr %3, align 8, !tbaa !8
  %18 = getelementptr inbounds nuw i8, ptr %3, i64 16
  %19 = load ptr, ptr %18, align 8, !tbaa !17
  %20 = getelementptr inbounds nuw i8, ptr %3, i64 32
  %21 = icmp eq ptr %19, %20
  br i1 %21, label %_ZNKSt7__cxx1112basic_stringIcSt11char_traitsIcESaIcEE11_M_is_localEv.exit.thread.i.i.i9, label %_ZNKSt7__cxx1112basic_stringIcSt11char_traitsIcESaIcEE11_M_is_localEv.exit.i.i.i8

_ZNKSt7__cxx1112basic_stringIcSt11char_traitsIcESaIcEE11_M_is_localEv.exit.thread.i.i.i9: ; preds = %16
  %22 = getelementptr inbounds nuw i8, ptr %3, i64 24
  %23 = load i64, ptr %22, align 8, !tbaa !18
  %24 = icmp ult i64 %23, 16
  call void @llvm.assume(i1 %24)
  br label %_ZN5zxing12ErrorHandlerD2Ev.exit10

_ZNKSt7__cxx1112basic_stringIcSt11char_traitsIcESaIcEE11_M_is_localEv.exit.i.i.i8: ; preds = %16
  call void @_ZdlPv(ptr noundef %19) #17
  br label %_ZN5zxing12ErrorHandlerD2Ev.exit10

_ZN5zxing12ErrorHandlerD2Ev.exit10:               ; preds = %_ZNKSt7__cxx1112basic_stringIcSt11char_traitsIcESaIcEE11_M_is_localEv.exit.thread.i.i.i9, %_ZNKSt7__cxx1112basic_stringIcSt11char_traitsIcESaIcEE11_M_is_localEv.exit.i.i.i8
  call void @llvm.lifetime.end.p0(i64 48, ptr nonnull %3) #16
  resume { ptr, i32 } %17

25:                                               ; preds = %2
  %26 = zext nneg i32 %0 to i64
  %27 = load ptr, ptr @_ZN5zxing6qrcode8DataMask10DATA_MASKSE, align 8, !tbaa !19
  %28 = getelementptr inbounds nuw %"class.zxing::Ref", ptr %27, i64 %26
  br label %29

29:                                               ; preds = %25, %_ZN5zxing12ErrorHandlerD2Ev.exit
  %.0.in = phi ptr [ %15, %_ZN5zxing12ErrorHandlerD2Ev.exit ], [ %28, %25 ]
  %.0 = load ptr, ptr %.0.in, align 8, !tbaa !22
  ret ptr %.0
}